
../mips/elf/add:     file format elf32-littlemips


Disassembly of section .text:

00000000 <start>:
   0:	00000000 	nop
   4:	08000004 	j	10 <real_start>
   8:	00000000 	nop

0000000c <global_result>:
   c:	ffffffff 	sdc3	$31,-1(ra)

00000010 <real_start>:
  10:	241d0400 	li	sp,1024
  14:	0c00000e 	jal	38 <main>
  18:	00000000 	nop
  1c:	3c010000 	lui	at,0x0
  20:	ac20000c 	sw	zero,12(at)

00000024 <end_loop>:
  24:	08000009 	j	24 <end_loop>
  28:	00000000 	nop

0000002c <add>:
  2c:	00851021 	addu	v0,a0,a1
  30:	03e00008 	jr	ra
  34:	00000000 	nop

Disassembly of section .text.startup:

00000038 <main>:
  38:	3c0d0000 	lui	t5,0x0
  3c:	3c0c0000 	lui	t4,0x0
  40:	258c01e8 	addiu	t4,t4,488
  44:	3c0b0000 	lui	t3,0x0
  48:	3c070000 	lui	a3,0x0
  4c:	8da9000c 	lw	t1,12(t5)
  50:	256b00e8 	addiu	t3,t3,232
  54:	24e70208 	addiu	a3,a3,520
  58:	01805025 	move	t2,t4
  5c:	00004025 	move	t0,zero
  60:	8d460000 	lw	a2,0(t2)
  64:	01602025 	move	a0,t3
  68:	01801025 	move	v0,t4
  6c:	8c430000 	lw	v1,0(v0)
  70:	8c850000 	lw	a1,0(a0)
  74:	00c31821 	addu	v1,a2,v1
  78:	10650005 	beq	v1,a1,90 <main+0x58>
  7c:	00000000 	nop
  80:	08000009 	j	24 <end_loop>
  84:	00000000 	nop
  88:	24080001 	li	t0,1
  8c:	24090001 	li	t1,1
  90:	24420004 	addiu	v0,v0,4
  94:	24840004 	addiu	a0,a0,4
  98:	1447fff4 	bne	v0,a3,6c <main+0x34>
  9c:	00000000 	nop
  a0:	254a0004 	addiu	t2,t2,4
  a4:	256b0020 	addiu	t3,t3,32
  a8:	144affed 	bne	v0,t2,60 <main+0x28>
  ac:	00000000 	nop
  b0:	15000004 	bnez	t0,c4 <main+0x8c>
  b4:	00000000 	nop
  b8:	00001025 	move	v0,zero
  bc:	03e00008 	jr	ra
  c0:	00000000 	nop
  c4:	ada9000c 	sw	t1,12(t5)
  c8:	1000fffb 	b	b8 <main+0x80>
  cc:	00000000 	nop
