
../mips/elf/fib:     file format elf32-littlemips


Disassembly of section .text:

00000000 <start>:
   0:	00000000 	nop
   4:	08000004 	j	10 <real_start>
   8:	00000000 	nop

0000000c <global_result>:
   c:	ffffffff 	sdc3	$31,-1(ra)

00000010 <real_start>:
  10:	241d0400 	li	sp,1024
  14:	0c00000b 	jal	2c <main>
  18:	00000000 	nop
  1c:	3c010000 	lui	at,0x0
  20:	ac20000c 	sw	zero,12(at)

00000024 <end_loop>:
  24:	08000009 	j	24 <end_loop>
  28:	00000000 	nop

Disassembly of section .text.startup:

0000002c <main>:
  2c:	3c0a0000 	lui	t2,0x0
  30:	3c020000 	lui	v0,0x0
  34:	3c040000 	lui	a0,0x0
  38:	3c070000 	lui	a3,0x0
  3c:	8d49000c 	lw	t1,12(t2)
  40:	24420168 	addiu	v0,v0,360
  44:	248400d0 	addiu	a0,a0,208
  48:	24e70200 	addiu	a3,a3,512
  4c:	00004025 	move	t0,zero
  50:	8c430004 	lw	v1,4(v0)
  54:	8c460000 	lw	a2,0(v0)
  58:	8c850000 	lw	a1,0(a0)
  5c:	00661821 	addu	v1,v1,a2
  60:	ac430008 	sw	v1,8(v0)
  64:	10650005 	beq	v1,a1,7c <main+0x50>
  68:	00000000 	nop
  6c:	08000009 	j	24 <end_loop>
  70:	00000000 	nop
  74:	24080001 	li	t0,1
  78:	24090001 	li	t1,1
  7c:	24420004 	addiu	v0,v0,4
  80:	24840004 	addiu	a0,a0,4
  84:	1447fff2 	bne	v0,a3,50 <main+0x24>
  88:	00000000 	nop
  8c:	15000004 	bnez	t0,a0 <main+0x74>
  90:	00000000 	nop
  94:	00001025 	move	v0,zero
  98:	03e00008 	jr	ra
  9c:	00000000 	nop
  a0:	ad49000c 	sw	t1,12(t2)
  a4:	1000fffb 	b	94 <main+0x68>
  a8:	00000000 	nop
