
../mips/elf/sub-longlong:     file format elf32-littlemips


Disassembly of section .text:

00000000 <start>:
   0:	241d4000 	li	sp,16384
   4:	08000004 	j	10 <continued>
   8:	00000000 	nop

0000000c <global_result>:
   c:	ffffffff 	sdc3	$31,-1(ra)

00000010 <continued>:
  10:	0c00001f 	jal	7c <main>
  14:	00000000 	nop
  18:	0c000015 	jal	54 <hit_good_trap>
  1c:	00000000 	nop

00000020 <_halt>:
  20:	3c020000 	lui	v0,0x0
  24:	ac44000c 	sw	a0,12(v0)
  28:	1000ffff 	b	28 <_halt+0x8>
  2c:	00000000 	nop

00000030 <nemu_assert>:
  30:	14800006 	bnez	a0,4c <nemu_assert+0x1c>
  34:	00000000 	nop
  38:	24030001 	li	v1,1
  3c:	3c020000 	lui	v0,0x0
  40:	ac43000c 	sw	v1,12(v0)
  44:	1000ffff 	b	44 <nemu_assert+0x14>
  48:	00000000 	nop
  4c:	03e00008 	jr	ra
  50:	00000000 	nop

00000054 <hit_good_trap>:
  54:	3c020000 	lui	v0,0x0
  58:	ac40000c 	sw	zero,12(v0)
  5c:	1000ffff 	b	5c <hit_good_trap+0x8>
  60:	00000000 	nop

00000064 <sub>:
  64:	00861023 	subu	v0,a0,a2
  68:	0082202b 	sltu	a0,a0,v0
  6c:	00a71823 	subu	v1,a1,a3
  70:	00641823 	subu	v1,v1,a0
  74:	03e00008 	jr	ra
  78:	00000000 	nop

Disassembly of section .text.startup:

0000007c <main>:
  7c:	3c0d0000 	lui	t5,0x0
  80:	27bdffe8 	addiu	sp,sp,-24
  84:	25ad0338 	addiu	t5,t5,824
  88:	3c0c0000 	lui	t4,0x0
  8c:	3c0b0000 	lui	t3,0x0
  90:	258c0138 	addiu	t4,t4,312
  94:	afbf0014 	sw	ra,20(sp)
  98:	256b0378 	addiu	t3,t3,888
  9c:	01a04825 	move	t1,t5
  a0:	01803825 	move	a3,t4
  a4:	01a02825 	move	a1,t5
  a8:	8ca40000 	lw	a0,0(a1)
  ac:	8d260000 	lw	a2,0(t1)
  b0:	8caa0004 	lw	t2,4(a1)
  b4:	8d220004 	lw	v0,4(t1)
  b8:	00c41823 	subu	v1,a2,a0
  bc:	8ce80004 	lw	t0,4(a3)
  c0:	8ce40000 	lw	a0,0(a3)
  c4:	00c3302b 	sltu	a2,a2,v1
  c8:	004a1023 	subu	v0,v0,t2
  cc:	00461023 	subu	v0,v0,a2
  d0:	00832026 	xor	a0,a0,v1
  d4:	01021026 	xor	v0,t0,v0
  d8:	00822025 	or	a0,a0,v0
  dc:	2c840001 	sltiu	a0,a0,1
  e0:	24a50008 	addiu	a1,a1,8
  e4:	0c00000c 	jal	30 <nemu_assert>
  e8:	00000000 	nop
  ec:	24e70008 	addiu	a3,a3,8
  f0:	14abffed 	bne	a1,t3,a8 <main+0x2c>
  f4:	00000000 	nop
  f8:	25290008 	addiu	t1,t1,8
  fc:	258c0040 	addiu	t4,t4,64
 100:	14a9ffe7 	bne	a1,t1,a0 <main+0x24>
 104:	00000000 	nop
 108:	8fbf0014 	lw	ra,20(sp)
 10c:	00001025 	move	v0,zero
 110:	27bd0018 	addiu	sp,sp,24
 114:	03e00008 	jr	ra
 118:	00000000 	nop
