
../mips/elf/prime:     file format elf32-littlemips


Disassembly of section .text:

00000000 <start>:
   0:	241d4000 	li	sp,16384
   4:	08000004 	j	10 <continued>
   8:	00000000 	nop

0000000c <global_result>:
   c:	ffffffff 	sdc3	$31,-1(ra)

00000010 <continued>:
  10:	0c000019 	jal	64 <main>
  14:	00000000 	nop
  18:	0c000015 	jal	54 <hit_good_trap>
  1c:	00000000 	nop

00000020 <_halt>:
  20:	3c020000 	lui	v0,0x0
  24:	ac44000c 	sw	a0,12(v0)
  28:	1000ffff 	b	28 <_halt+0x8>
  2c:	00000000 	nop

00000030 <nemu_assert>:
  30:	14800006 	bnez	a0,4c <nemu_assert+0x1c>
  34:	00000000 	nop
  38:	24030001 	li	v1,1
  3c:	3c020000 	lui	v0,0x0
  40:	ac43000c 	sw	v1,12(v0)
  44:	1000ffff 	b	44 <nemu_assert+0x14>
  48:	00000000 	nop
  4c:	03e00008 	jr	ra
  50:	00000000 	nop

00000054 <hit_good_trap>:
  54:	3c020000 	lui	v0,0x0
  58:	ac40000c 	sw	zero,12(v0)
  5c:	1000ffff 	b	5c <hit_good_trap+0x8>
  60:	00000000 	nop

Disassembly of section .text.startup:

00000064 <main>:
  64:	27bdffe8 	addiu	sp,sp,-24
  68:	3c080000 	lui	t0,0x0
  6c:	00003025 	move	a2,zero
  70:	afbf0014 	sw	ra,20(sp)
  74:	24050065 	li	a1,101
  78:	25080120 	addiu	t0,t0,288
  7c:	24070097 	li	a3,151
  80:	24030002 	li	v1,2
  84:	00a3102a 	slt	v0,a1,v1
  88:	14400008 	bnez	v0,ac <main+0x48>
  8c:	00000000 	nop
  90:	00a01025 	move	v0,a1
  94:	00431023 	subu	v0,v0,v1
  98:	0043202a 	slt	a0,v0,v1
  9c:	1080fffd 	beqz	a0,94 <main+0x30>
  a0:	00000000 	nop
  a4:	1040000c 	beqz	v0,d8 <main+0x74>
  a8:	00000000 	nop
  ac:	24630001 	addiu	v1,v1,1
  b0:	1465fff4 	bne	v1,a1,84 <main+0x20>
  b4:	00000000 	nop
  b8:	00061080 	sll	v0,a2,0x2
  bc:	00481021 	addu	v0,v0,t0
  c0:	8c440000 	lw	a0,0(v0)
  c4:	24c60001 	addiu	a2,a2,1
  c8:	00852026 	xor	a0,a0,a1
  cc:	2c840001 	sltiu	a0,a0,1
  d0:	0c00000c 	jal	30 <nemu_assert>
  d4:	00000000 	nop
  d8:	24a50002 	addiu	a1,a1,2
  dc:	14a7ffe8 	bne	a1,a3,80 <main+0x1c>
  e0:	00000000 	nop
  e4:	38c4000a 	xori	a0,a2,0xa
  e8:	2c840001 	sltiu	a0,a0,1
  ec:	0c00000c 	jal	30 <nemu_assert>
  f0:	00000000 	nop
  f4:	8fbf0014 	lw	ra,20(sp)
  f8:	00001025 	move	v0,zero
  fc:	27bd0018 	addiu	sp,sp,24
 100:	03e00008 	jr	ra
 104:	00000000 	nop
