
../riscv32/elf/sub-longlong:     file format elf32-littleriscv


Disassembly of section .text:

00000000 <start>:
   0:	00004137          	lui	sp,0x4
   4:	00c0006f          	j	10 <continued>
   8:	00000013          	nop

0000000c <global_result>:
   c:	ffff                	0xffff
   e:	ffff                	0xffff

00000010 <continued>:
  10:	050000ef          	jal	ra,60 <main>
  14:	028000ef          	jal	ra,3c <hit_good_trap>

00000018 <_halt>:
  18:	000007b7          	lui	a5,0x0
  1c:	00a7a623          	sw	a0,12(a5) # c <global_result>
  20:	0000006f          	j	20 <_halt+0x8>

00000024 <nemu_assert>:
  24:	00051a63          	bnez	a0,38 <nemu_assert+0x14>
  28:	000007b7          	lui	a5,0x0
  2c:	00100713          	li	a4,1
  30:	00e7a623          	sw	a4,12(a5) # c <global_result>
  34:	0000006f          	j	34 <nemu_assert+0x10>
  38:	00008067          	ret

0000003c <hit_good_trap>:
  3c:	000007b7          	lui	a5,0x0
  40:	0007a623          	sw	zero,12(a5) # c <global_result>
  44:	0000006f          	j	44 <hit_good_trap+0x8>

00000048 <sub>:
  48:	00050793          	mv	a5,a0
  4c:	40c50533          	sub	a0,a0,a2
  50:	00a7b7b3          	sltu	a5,a5,a0
  54:	40d585b3          	sub	a1,a1,a3
  58:	40f585b3          	sub	a1,a1,a5
  5c:	00008067          	ret

Disassembly of section .text.startup:

00000060 <main>:
  60:	fe010113          	addi	sp,sp,-32 # 3fe0 <test_data+0x3cc8>
  64:	01212823          	sw	s2,16(sp)
  68:	11800913          	li	s2,280
  6c:	01312623          	sw	s3,12(sp)
  70:	20090993          	addi	s3,s2,512
  74:	00912a23          	sw	s1,20(sp)
  78:	01512223          	sw	s5,4(sp)
  7c:	00112e23          	sw	ra,28(sp)
  80:	00812c23          	sw	s0,24(sp)
  84:	01412423          	sw	s4,8(sp)
  88:	24090493          	addi	s1,s2,576
  8c:	00098a93          	mv	s5,s3
  90:	00090a13          	mv	s4,s2
  94:	00098413          	mv	s0,s3
  98:	00042503          	lw	a0,0(s0)
  9c:	000aa683          	lw	a3,0(s5)
  a0:	00442583          	lw	a1,4(s0)
  a4:	004aa783          	lw	a5,4(s5)
  a8:	40a68733          	sub	a4,a3,a0
  ac:	004a2603          	lw	a2,4(s4)
  b0:	000a2503          	lw	a0,0(s4)
  b4:	00e6b6b3          	sltu	a3,a3,a4
  b8:	40b787b3          	sub	a5,a5,a1
  bc:	40d787b3          	sub	a5,a5,a3
  c0:	00e54533          	xor	a0,a0,a4
  c4:	00f647b3          	xor	a5,a2,a5
  c8:	00f56533          	or	a0,a0,a5
  cc:	00153513          	seqz	a0,a0
  d0:	00840413          	addi	s0,s0,8
  d4:	f51ff0ef          	jal	ra,24 <nemu_assert>
  d8:	008a0a13          	addi	s4,s4,8
  dc:	fa941ee3          	bne	s0,s1,98 <main+0x38>
  e0:	008a8a93          	addi	s5,s5,8
  e4:	04090913          	addi	s2,s2,64
  e8:	fa8a94e3          	bne	s5,s0,90 <main+0x30>
  ec:	01c12083          	lw	ra,28(sp)
  f0:	01812403          	lw	s0,24(sp)
  f4:	01412483          	lw	s1,20(sp)
  f8:	01012903          	lw	s2,16(sp)
  fc:	00c12983          	lw	s3,12(sp)
 100:	00812a03          	lw	s4,8(sp)
 104:	00412a83          	lw	s5,4(sp)
 108:	00000513          	li	a0,0
 10c:	02010113          	addi	sp,sp,32
 110:	00008067          	ret
