
../riscv32/elf/matrix-mul:     file format elf32-littleriscv


Disassembly of section .text:

00000000 <start>:
   0:	00004137          	lui	sp,0x4
   4:	00c0006f          	j	10 <continued>
   8:	00000013          	nop

0000000c <global_result>:
   c:	ffff                	0xffff
   e:	ffff                	0xffff

00000010 <continued>:
  10:	038000ef          	jal	ra,48 <main>
  14:	028000ef          	jal	ra,3c <hit_good_trap>

00000018 <_halt>:
  18:	000007b7          	lui	a5,0x0
  1c:	00a7a623          	sw	a0,12(a5) # c <global_result>
  20:	0000006f          	j	20 <_halt+0x8>

00000024 <nemu_assert>:
  24:	00051a63          	bnez	a0,38 <nemu_assert+0x14>
  28:	000007b7          	lui	a5,0x0
  2c:	00100713          	li	a4,1
  30:	00e7a623          	sw	a4,12(a5) # c <global_result>
  34:	0000006f          	j	34 <nemu_assert+0x10>
  38:	00008067          	ret

0000003c <hit_good_trap>:
  3c:	000007b7          	lui	a5,0x0
  40:	0007a623          	sw	zero,12(a5) # c <global_result>
  44:	0000006f          	j	44 <hit_good_trap+0x8>

Disassembly of section .text.startup:

00000048 <main>:
  48:	fd010113          	addi	sp,sp,-48 # 3fd0 <c+0x3990>
  4c:	02812423          	sw	s0,40(sp)
  50:	19000413          	li	s0,400
  54:	03212023          	sw	s2,32(sp)
  58:	01312e23          	sw	s3,28(sp)
  5c:	01512a23          	sw	s5,20(sp)
  60:	02912223          	sw	s1,36(sp)
  64:	01412c23          	sw	s4,24(sp)
  68:	01612823          	sw	s6,16(sp)
  6c:	01912223          	sw	s9,4(sp)
  70:	32040493          	addi	s1,s0,800
  74:	02112623          	sw	ra,44(sp)
  78:	01712623          	sw	s7,12(sp)
  7c:	01812423          	sw	s8,8(sp)
  80:	19000a13          	li	s4,400
  84:	64000993          	li	s3,1600
  88:	4b040413          	addi	s0,s0,1200
  8c:	32000a93          	li	s5,800
  90:	34800913          	li	s2,840
  94:	00100c93          	li	s9,1
  98:	02000b13          	li	s6,32
  9c:	000a8e13          	mv	t3,s5
  a0:	00098c13          	mv	s8,s3
  a4:	e70e0b93          	addi	s7,t3,-400
  a8:	00048893          	mv	a7,s1
  ac:	00000813          	li	a6,0
  b0:	000ba683          	lw	a3,0(s7)
  b4:	0008a503          	lw	a0,0(a7)
  b8:	00100313          	li	t1,1
  bc:	00d04463          	bgtz	a3,c4 <main+0x7c>
  c0:	fff00313          	li	t1,-1
  c4:	41f6d793          	srai	a5,a3,0x1f
  c8:	00d7c6b3          	xor	a3,a5,a3
  cc:	40f686b3          	sub	a3,a3,a5
  d0:	00000593          	li	a1,0
  d4:	00000793          	li	a5,0
  d8:	0016f713          	andi	a4,a3,1
  dc:	00f51633          	sll	a2,a0,a5
  e0:	00178793          	addi	a5,a5,1
  e4:	00070463          	beqz	a4,ec <main+0xa4>
  e8:	00c585b3          	add	a1,a1,a2
  ec:	4016d693          	srai	a3,a3,0x1
  f0:	ff6794e3          	bne	a5,s6,d8 <main+0x90>
  f4:	01930463          	beq	t1,s9,fc <main+0xb4>
  f8:	40b005b3          	neg	a1,a1
  fc:	00b80833          	add	a6,a6,a1
 100:	010c2023          	sw	a6,0(s8)
 104:	028b8b93          	addi	s7,s7,40
 108:	00488893          	addi	a7,a7,4
 10c:	fbcb92e3          	bne	s7,t3,b0 <main+0x68>
 110:	017a07b3          	add	a5,s4,s7
 114:	e707a503          	lw	a0,-400(a5)
 118:	004c0c13          	addi	s8,s8,4
 11c:	41050533          	sub	a0,a0,a6
 120:	00153513          	seqz	a0,a0
 124:	f01ff0ef          	jal	ra,24 <nemu_assert>
 128:	00100513          	li	a0,1
 12c:	ef9ff0ef          	jal	ra,24 <nemu_assert>
 130:	004b8e13          	addi	t3,s7,4
 134:	f7c918e3          	bne	s2,t3,a4 <main+0x5c>
 138:	00100513          	li	a0,1
 13c:	02848493          	addi	s1,s1,40
 140:	ee5ff0ef          	jal	ra,24 <nemu_assert>
 144:	028a0a13          	addi	s4,s4,40
 148:	02898993          	addi	s3,s3,40
 14c:	f48498e3          	bne	s1,s0,9c <main+0x54>
 150:	00100513          	li	a0,1
 154:	ed1ff0ef          	jal	ra,24 <nemu_assert>
 158:	02c12083          	lw	ra,44(sp)
 15c:	02812403          	lw	s0,40(sp)
 160:	02412483          	lw	s1,36(sp)
 164:	02012903          	lw	s2,32(sp)
 168:	01c12983          	lw	s3,28(sp)
 16c:	01812a03          	lw	s4,24(sp)
 170:	01412a83          	lw	s5,20(sp)
 174:	01012b03          	lw	s6,16(sp)
 178:	00c12b83          	lw	s7,12(sp)
 17c:	00812c03          	lw	s8,8(sp)
 180:	00412c83          	lw	s9,4(sp)
 184:	00000513          	li	a0,0
 188:	03010113          	addi	sp,sp,48
 18c:	00008067          	ret
