
../riscv32/elf/fib:     file format elf32-littleriscv


Disassembly of section .text:

00000000 <start>:
   0:	00004137          	lui	sp,0x4
   4:	00c0006f          	j	10 <continued>
   8:	00000013          	nop

0000000c <global_result>:
   c:	ffff                	0xffff
   e:	ffff                	0xffff

00000010 <continued>:
  10:	038000ef          	jal	ra,48 <main>
  14:	028000ef          	jal	ra,3c <hit_good_trap>

00000018 <_halt>:
  18:	000007b7          	lui	a5,0x0
  1c:	00a7a623          	sw	a0,12(a5) # c <global_result>
  20:	0000006f          	j	20 <_halt+0x8>

00000024 <nemu_assert>:
  24:	00051a63          	bnez	a0,38 <nemu_assert+0x14>
  28:	000007b7          	lui	a5,0x0
  2c:	00100713          	li	a4,1
  30:	00e7a623          	sw	a4,12(a5) # c <global_result>
  34:	0000006f          	j	34 <nemu_assert+0x10>
  38:	00008067          	ret

0000003c <hit_good_trap>:
  3c:	000007b7          	lui	a5,0x0
  40:	0007a623          	sw	zero,12(a5) # c <global_result>
  44:	0000006f          	j	44 <hit_good_trap+0x8>

Disassembly of section .text.startup:

00000048 <main>:
  48:	ff010113          	addi	sp,sp,-16 # 3ff0 <ans+0x3e98>
  4c:	00812423          	sw	s0,8(sp)
  50:	0b800413          	li	s0,184
  54:	00912223          	sw	s1,4(sp)
  58:	01212023          	sw	s2,0(sp)
  5c:	00112623          	sw	ra,12(sp)
  60:	0a840493          	addi	s1,s0,168
  64:	09840913          	addi	s2,s0,152
  68:	00442783          	lw	a5,4(s0)
  6c:	00042703          	lw	a4,0(s0)
  70:	0004a503          	lw	a0,0(s1)
  74:	00440413          	addi	s0,s0,4
  78:	00e787b3          	add	a5,a5,a4
  7c:	40f50533          	sub	a0,a0,a5
  80:	00153513          	seqz	a0,a0
  84:	00f42223          	sw	a5,4(s0)
  88:	00448493          	addi	s1,s1,4
  8c:	f99ff0ef          	jal	ra,24 <nemu_assert>
  90:	fd241ce3          	bne	s0,s2,68 <main+0x20>
  94:	00100513          	li	a0,1
  98:	f8dff0ef          	jal	ra,24 <nemu_assert>
  9c:	00c12083          	lw	ra,12(sp)
  a0:	00812403          	lw	s0,8(sp)
  a4:	00412483          	lw	s1,4(sp)
  a8:	00012903          	lw	s2,0(sp)
  ac:	00000513          	li	a0,0
  b0:	01010113          	addi	sp,sp,16
  b4:	00008067          	ret
