
../riscv32/elf/max:     file format elf32-littleriscv


Disassembly of section .text:

00000000 <start>:
   0:	00004137          	lui	sp,0x4
   4:	00c0006f          	j	10 <continued>
   8:	00000013          	nop

0000000c <global_result>:
   c:	ffff                	0xffff
   e:	ffff                	0xffff

00000010 <continued>:
  10:	0d4000ef          	jal	ra,e4 <main>
  14:	05c000ef          	jal	ra,70 <hit_good_trap>

00000018 <_halt>:
  18:	fe010113          	addi	sp,sp,-32 # 3fe0 <ans+0x3dd8>
  1c:	00812e23          	sw	s0,28(sp)
  20:	02010413          	addi	s0,sp,32
  24:	fea42623          	sw	a0,-20(s0)
  28:	000007b7          	lui	a5,0x0
  2c:	fec42703          	lw	a4,-20(s0)
  30:	00e7a623          	sw	a4,12(a5) # c <global_result>
  34:	0000006f          	j	34 <_halt+0x1c>

00000038 <nemu_assert>:
  38:	fe010113          	addi	sp,sp,-32
  3c:	00112e23          	sw	ra,28(sp)
  40:	00812c23          	sw	s0,24(sp)
  44:	02010413          	addi	s0,sp,32
  48:	fea42623          	sw	a0,-20(s0)
  4c:	fec42783          	lw	a5,-20(s0)
  50:	00079663          	bnez	a5,5c <nemu_assert+0x24>
  54:	00100513          	li	a0,1
  58:	fc1ff0ef          	jal	ra,18 <_halt>
  5c:	00000013          	nop
  60:	01c12083          	lw	ra,28(sp)
  64:	01812403          	lw	s0,24(sp)
  68:	02010113          	addi	sp,sp,32
  6c:	00008067          	ret

00000070 <hit_good_trap>:
  70:	ff010113          	addi	sp,sp,-16
  74:	00112623          	sw	ra,12(sp)
  78:	00812423          	sw	s0,8(sp)
  7c:	01010413          	addi	s0,sp,16
  80:	00000513          	li	a0,0
  84:	f95ff0ef          	jal	ra,18 <_halt>
  88:	00000013          	nop
  8c:	00c12083          	lw	ra,12(sp)
  90:	00812403          	lw	s0,8(sp)
  94:	01010113          	addi	sp,sp,16
  98:	00008067          	ret

0000009c <max>:
  9c:	fd010113          	addi	sp,sp,-48
  a0:	02812623          	sw	s0,44(sp)
  a4:	03010413          	addi	s0,sp,48
  a8:	fca42e23          	sw	a0,-36(s0)
  ac:	fcb42c23          	sw	a1,-40(s0)
  b0:	fdc42703          	lw	a4,-36(s0)
  b4:	fd842783          	lw	a5,-40(s0)
  b8:	00e7d863          	bge	a5,a4,c8 <max+0x2c>
  bc:	fdc42783          	lw	a5,-36(s0)
  c0:	fef42623          	sw	a5,-20(s0)
  c4:	00c0006f          	j	d0 <max+0x34>
  c8:	fd842783          	lw	a5,-40(s0)
  cc:	fef42623          	sw	a5,-20(s0)
  d0:	fec42783          	lw	a5,-20(s0)
  d4:	00078513          	mv	a0,a5
  d8:	02c12403          	lw	s0,44(sp)
  dc:	03010113          	addi	sp,sp,48
  e0:	00008067          	ret

000000e4 <main>:
  e4:	fe010113          	addi	sp,sp,-32
  e8:	00112e23          	sw	ra,28(sp)
  ec:	00812c23          	sw	s0,24(sp)
  f0:	02010413          	addi	s0,sp,32
  f4:	fe042223          	sw	zero,-28(s0)
  f8:	fe042623          	sw	zero,-20(s0)
  fc:	0b00006f          	j	1ac <main+0xc8>
 100:	fe042423          	sw	zero,-24(s0)
 104:	0780006f          	j	17c <main+0x98>
 108:	fec42703          	lw	a4,-20(s0)
 10c:	00271713          	slli	a4,a4,0x2
 110:	1e800793          	li	a5,488
 114:	00f707b3          	add	a5,a4,a5
 118:	0007a683          	lw	a3,0(a5)
 11c:	fe842703          	lw	a4,-24(s0)
 120:	00271713          	slli	a4,a4,0x2
 124:	1e800793          	li	a5,488
 128:	00f707b3          	add	a5,a4,a5
 12c:	0007a783          	lw	a5,0(a5)
 130:	00078593          	mv	a1,a5
 134:	00068513          	mv	a0,a3
 138:	f65ff0ef          	jal	ra,9c <max>
 13c:	00050613          	mv	a2,a0
 140:	fe442783          	lw	a5,-28(s0)
 144:	00178713          	addi	a4,a5,1
 148:	fee42223          	sw	a4,-28(s0)
 14c:	00279713          	slli	a4,a5,0x2
 150:	20800793          	li	a5,520
 154:	00f707b3          	add	a5,a4,a5
 158:	0007a783          	lw	a5,0(a5)
 15c:	40f607b3          	sub	a5,a2,a5
 160:	0017b793          	seqz	a5,a5
 164:	0ff7f793          	andi	a5,a5,255
 168:	00078513          	mv	a0,a5
 16c:	ecdff0ef          	jal	ra,38 <nemu_assert>
 170:	fe842783          	lw	a5,-24(s0)
 174:	00178793          	addi	a5,a5,1
 178:	fef42423          	sw	a5,-24(s0)
 17c:	fe842703          	lw	a4,-24(s0)
 180:	00700793          	li	a5,7
 184:	f8e7f2e3          	bgeu	a5,a4,108 <main+0x24>
 188:	fe842783          	lw	a5,-24(s0)
 18c:	ff878793          	addi	a5,a5,-8
 190:	0017b793          	seqz	a5,a5
 194:	0ff7f793          	andi	a5,a5,255
 198:	00078513          	mv	a0,a5
 19c:	e9dff0ef          	jal	ra,38 <nemu_assert>
 1a0:	fec42783          	lw	a5,-20(s0)
 1a4:	00178793          	addi	a5,a5,1
 1a8:	fef42623          	sw	a5,-20(s0)
 1ac:	fec42703          	lw	a4,-20(s0)
 1b0:	00700793          	li	a5,7
 1b4:	f4e7f6e3          	bgeu	a5,a4,100 <main+0x1c>
 1b8:	fec42783          	lw	a5,-20(s0)
 1bc:	ff878793          	addi	a5,a5,-8
 1c0:	0017b793          	seqz	a5,a5
 1c4:	0ff7f793          	andi	a5,a5,255
 1c8:	00078513          	mv	a0,a5
 1cc:	e6dff0ef          	jal	ra,38 <nemu_assert>
 1d0:	00000793          	li	a5,0
 1d4:	00078513          	mv	a0,a5
 1d8:	01c12083          	lw	ra,28(sp)
 1dc:	01812403          	lw	s0,24(sp)
 1e0:	02010113          	addi	sp,sp,32
 1e4:	00008067          	ret
