
../riscv32/elf/to-lower-case:     file format elf32-littleriscv


Disassembly of section .text:

00000000 <start>:
   0:	00004137          	lui	sp,0x4
   4:	00c0006f          	j	10 <continued>
   8:	00000013          	nop

0000000c <global_result>:
   c:	ffff                	0xffff
   e:	ffff                	0xffff

00000010 <continued>:
  10:	054000ef          	jal	ra,64 <main>
  14:	028000ef          	jal	ra,3c <hit_good_trap>

00000018 <_halt>:
  18:	000007b7          	lui	a5,0x0
  1c:	00a7a623          	sw	a0,12(a5) # c <global_result>
  20:	0000006f          	j	20 <_halt+0x8>

00000024 <nemu_assert>:
  24:	00051a63          	bnez	a0,38 <nemu_assert+0x14>
  28:	000007b7          	lui	a5,0x0
  2c:	00100713          	li	a4,1
  30:	00e7a623          	sw	a4,12(a5) # c <global_result>
  34:	0000006f          	j	34 <nemu_assert+0x10>
  38:	00008067          	ret

0000003c <hit_good_trap>:
  3c:	000007b7          	lui	a5,0x0
  40:	0007a623          	sw	zero,12(a5) # c <global_result>
  44:	0000006f          	j	44 <hit_good_trap+0x8>

00000048 <to_lower_case>:
  48:	fbf50793          	addi	a5,a0,-65
  4c:	0ff7f793          	andi	a5,a5,255
  50:	01900713          	li	a4,25
  54:	00f76663          	bltu	a4,a5,60 <to_lower_case+0x18>
  58:	02050513          	addi	a0,a0,32
  5c:	0ff57513          	andi	a0,a0,255
  60:	00008067          	ret

Disassembly of section .text.startup:

00000064 <main>:
  64:	fe010113          	addi	sp,sp,-32 # 3fe0 <ans+0x3ef8>
  68:	00912a23          	sw	s1,20(sp)
  6c:	00812c23          	sw	s0,24(sp)
  70:	01212823          	sw	s2,16(sp)
  74:	01312623          	sw	s3,12(sp)
  78:	00112e23          	sw	ra,28(sp)
  7c:	00100413          	li	s0,1
  80:	00000513          	li	a0,0
  84:	0e800493          	li	s1,232
  88:	08000913          	li	s2,128
  8c:	01900993          	li	s3,25
  90:	008487b3          	add	a5,s1,s0
  94:	fff7c783          	lbu	a5,-1(a5)
  98:	40a78533          	sub	a0,a5,a0
  9c:	00153513          	seqz	a0,a0
  a0:	f85ff0ef          	jal	ra,24 <nemu_assert>
  a4:	0ff47513          	andi	a0,s0,255
  a8:	fbf50793          	addi	a5,a0,-65
  ac:	0ff7f793          	andi	a5,a5,255
  b0:	02050713          	addi	a4,a0,32
  b4:	01240a63          	beq	s0,s2,c8 <main+0x64>
  b8:	00f9e463          	bltu	s3,a5,c0 <main+0x5c>
  bc:	0ff77513          	andi	a0,a4,255
  c0:	00140413          	addi	s0,s0,1
  c4:	fcdff06f          	j	90 <main+0x2c>
  c8:	01c12083          	lw	ra,28(sp)
  cc:	01812403          	lw	s0,24(sp)
  d0:	01412483          	lw	s1,20(sp)
  d4:	01012903          	lw	s2,16(sp)
  d8:	00c12983          	lw	s3,12(sp)
  dc:	00000513          	li	a0,0
  e0:	02010113          	addi	sp,sp,32
  e4:	00008067          	ret
